; Function Attrs: nounwind sspstrong uwtable
define internal noundef i64 @cState_indent_set(i64 noundef %0, i64 noundef %1) #0 {
  %3 = tail call ptr @rb_check_typeddata(i64 noundef %0, ptr noundef nonnull @JSON_Generator_State_type) #22
  %4 = and i64 %1, -5
  %.not5.i = icmp eq i64 %4, 0
  br i1 %.not5.i, label %string_config.exit.thread, label %5

5:                                                ; preds = %2
  %6 = and i64 %1, 7
  %.not6.i = icmp eq i64 %6, 0
  br i1 %.not6.i, label %7, label %rbimpl_RB_TYPE_P_fastpath.exit.thread.i.i, !prof !22

7:                                                ; preds = %5
  %8 = inttoptr i64 %1 to ptr
  %9 = load i64, ptr %8, align 8, !tbaa !23
  %10 = and i64 %9, 31
  %11 = icmp eq i64 %10, 5
  br i1 %11, label %Check_Type.exit.i, label %rbimpl_RB_TYPE_P_fastpath.exit.thread.i.i, !prof !24

rbimpl_RB_TYPE_P_fastpath.exit.thread.i.i:        ; preds = %7, %5
  tail call void @rb_unexpected_type(i64 noundef %1, i32 noundef 5) #25
  unreachable

Check_Type.exit.i:                                ; preds = %7
  %12 = getelementptr inbounds nuw i8, ptr %8, i64 16
  %13 = load i64, ptr %12, align 8, !tbaa !31
  %.not.i = icmp eq i64 %13, 0
  br i1 %.not.i, label %string_config.exit.thread, label %string_config.exit

string_config.exit.thread:                        ; preds = %Check_Type.exit.i, %2
  store i64 0, ptr %3, align 8, !tbaa !6
  br label %rb_obj_write.exit

string_config.exit:                               ; preds = %Check_Type.exit.i
  %14 = tail call i64 @rb_str_new_frozen(i64 noundef %1) #22
  store i64 %14, ptr %3, align 8, !tbaa !6
  %15 = icmp eq i64 %14, 0
  %16 = and i64 %14, 7
  %17 = icmp ne i64 %16, 0
  %18 = or i1 %15, %17
  br i1 %18, label %rb_obj_write.exit, label %19

19:                                               ; preds = %string_config.exit
  tail call void @rb_gc_writebarrier(i64 noundef %0, i64 noundef %14) #22
  br label %rb_obj_write.exit

rb_obj_write.exit:                                ; preds = %string_config.exit.thread, %string_config.exit, %19
  ret i64 4
}